; Function Attrs: mustprogress uwtable
define noundef nonnull align 8 dereferenceable(200) ptr @_ZN6icu_7510UnicodeSet6retainEi(ptr noundef nonnull returned align 8 dereferenceable(200) %this, i32 noundef %c) local_unnamed_addr #1 align 2 {
entry:
  %range.i = alloca [3 x i32], align 4
  call void @llvm.lifetime.start.p0(i64 12, ptr nonnull %range.i)
  %cmp.i1.i = icmp slt i32 %c, 0
  %spec.select9.i = tail call i32 @llvm.umin.i32(i32 %c, i32 1114111)
  %0 = add nuw nsw i32 %spec.select9.i, 1
  %start.addr.0.i = select i1 %cmp.i1.i, i32 0, i32 %spec.select9.i
  store i32 %start.addr.0.i, ptr %range.i, align 4
  %arrayinit.element.i = getelementptr inbounds i8, ptr %range.i, i64 4
  %add.i = select i1 %cmp.i1.i, i32 1, i32 %0
  store i32 %add.i, ptr %arrayinit.element.i, align 4
  %arrayinit.element3.i = getelementptr inbounds i8, ptr %range.i, i64 8
  store i32 1114112, ptr %arrayinit.element3.i, align 4
  call void @_ZN6icu_7510UnicodeSet6retainEPKiia(ptr noundef nonnull align 8 dereferenceable(200) %this, ptr noundef nonnull %range.i, i32 noundef 2, i8 noundef signext 0)
  call void @llvm.lifetime.end.p0(i64 12, ptr nonnull %range.i)
  ret ptr %this
}